; Function Attrs: mustprogress uwtable
define noundef i32 @_ZN2cv3hal11normHammingEPKhS2_ii(ptr noundef %0, ptr noundef %1, i32 noundef %2, i32 noundef %3) local_unnamed_addr #0 personality ptr @__gxx_personality_v0 {
  switch i32 %3, label %.loopexit [
    i32 1, label %5
    i32 2, label %8
    i32 4, label %7
  ]

5:                                                ; preds = %4
  %6 = tail call noundef i32 @_ZN2cv3hal11normHammingEPKhS2_i(ptr noundef %0, ptr noundef %1, i32 noundef %2)
  br label %.loopexit

7:                                                ; preds = %4
  br label %8

8:                                                ; preds = %4, %7
  %.028 = phi ptr [ @_ZN2cv3halL14popCountTable4E, %7 ], [ @_ZN2cv3halL14popCountTable2E, %4 ]
  %9 = icmp sgt i32 %2, 0
  br i1 %9, label %.lr.ph.preheader, label %.loopexit

.lr.ph.preheader:                                 ; preds = %8
  %wide.trip.count = zext nneg i32 %2 to i64
  br label %.lr.ph

.lr.ph:                                           ; preds = %.lr.ph.preheader, %.lr.ph
  %indvars.iv = phi i64 [ 0, %.lr.ph.preheader ], [ %indvars.iv.next, %.lr.ph ]
  %.035 = phi i32 [ 0, %.lr.ph.preheader ], [ %19, %.lr.ph ]
  %10 = getelementptr inbounds nuw i8, ptr %0, i64 %indvars.iv
  %11 = load i8, ptr %10, align 1, !tbaa !12
  %12 = getelementptr inbounds nuw i8, ptr %1, i64 %indvars.iv
  %13 = load i8, ptr %12, align 1, !tbaa !12
  %14 = xor i8 %13, %11
  %15 = zext i8 %14 to i64
  %16 = getelementptr inbounds nuw i8, ptr %.028, i64 %15
  %17 = load i8, ptr %16, align 1, !tbaa !12
  %18 = zext i8 %17 to i32
  %19 = add nuw nsw i32 %.035, %18
  %indvars.iv.next = add nuw nsw i64 %indvars.iv, 1
  %exitcond.not = icmp eq i64 %indvars.iv.next, %wide.trip.count
  br i1 %exitcond.not, label %.loopexit, label %.lr.ph, !llvm.loop !84

.loopexit:                                        ; preds = %.lr.ph, %8, %4, %5
  %.1 = phi i32 [ %6, %5 ], [ -1, %4 ], [ 0, %8 ], [ %19, %.lr.ph ]
  ret i32 %.1
}